; Function Attrs: nounwind uwtable
define hidden zeroext i1 @SDL_FlipSurface_REAL(ptr noundef readonly captures(address_is_null) %0, i32 noundef %1) local_unnamed_addr #2 {
  %.not.i = icmp eq ptr %0, null
  br i1 %.not.i, label %SDL_SurfaceValid.exit.thread, label %SDL_SurfaceValid.exit

SDL_SurfaceValid.exit:                            ; preds = %2
  %3 = getelementptr inbounds nuw i8, ptr %0, i64 40
  %4 = load ptr, ptr %3, align 8
  %5 = icmp eq ptr %4, @SDL_surface_magic
  br i1 %5, label %7, label %SDL_SurfaceValid.exit.thread

SDL_SurfaceValid.exit.thread:                     ; preds = %2, %SDL_SurfaceValid.exit
  %6 = tail call zeroext i1 (ptr, ...) @SDL_SetError_REAL(ptr noundef nonnull @.str, ptr noundef nonnull @.str.5) #10
  br label %17

7:                                                ; preds = %SDL_SurfaceValid.exit
  %8 = getelementptr inbounds nuw i8, ptr %0, i64 24
  %9 = load ptr, ptr %8, align 8
  %.not = icmp eq ptr %9, null
  br i1 %.not, label %17, label %10

10:                                               ; preds = %7
  switch i32 %1, label %15 [
    i32 1, label %11
    i32 2, label %13
  ]

11:                                               ; preds = %10
  %12 = tail call fastcc zeroext i1 @SDL_FlipSurfaceHorizontal(ptr noundef nonnull %0)
  br label %17

13:                                               ; preds = %10
  %14 = tail call fastcc zeroext i1 @SDL_FlipSurfaceVertical(ptr noundef nonnull %0)
  br label %17

15:                                               ; preds = %10
  %16 = tail call zeroext i1 (ptr, ...) @SDL_SetError_REAL(ptr noundef nonnull @.str, ptr noundef nonnull @.str.22) #10
  br label %17

17:                                               ; preds = %7, %15, %13, %11, %SDL_SurfaceValid.exit.thread
  %.0 = phi i1 [ %16, %15 ], [ %14, %13 ], [ %12, %11 ], [ %6, %SDL_SurfaceValid.exit.thread ], [ true, %7 ]
  ret i1 %.0
}